target datalayout = "e-m:e-p270:32:32-p271:32:32-p272:64:64-i64:64-i128:128-f80:128-n8:16:32:64-S128"
target triple = "x86_64-pc-linux-gnu"

; Function Attrs: inlinehint mustprogress nounwind uwtable
define linkonce_odr hidden noundef i32 @_ZN9Imath_3_24divpEii(i32 noundef %0, i32 noundef %1) #7 comdat {
  %3 = alloca i32, align 4
  %4 = alloca i32, align 4
  store i32 %0, ptr %3, align 4, !tbaa !14
  store i32 %1, ptr %4, align 4, !tbaa !14
  %5 = load i32, ptr %3, align 4, !tbaa !14
  %6 = icmp sge i32 %5, 0
  br i1 %6, label %7, label %22

7:                                                ; preds = %2
  %8 = load i32, ptr %4, align 4, !tbaa !14
  %9 = icmp sge i32 %8, 0
  br i1 %9, label %10, label %14

10:                                               ; preds = %7
  %11 = load i32, ptr %3, align 4, !tbaa !14
  %12 = load i32, ptr %4, align 4, !tbaa !14
  %13 = sdiv i32 %11, %12
  br label %20

14:                                               ; preds = %7
  %15 = load i32, ptr %3, align 4, !tbaa !14
  %16 = load i32, ptr %4, align 4, !tbaa !14
  %17 = sub nsw i32 0, %16
  %18 = sdiv i32 %15, %17
  %19 = sub nsw i32 0, %18
  br label %20

20:                                               ; preds = %14, %10
  %21 = phi i32 [ %13, %10 ], [ %19, %14 ]
  br label %44

22:                                               ; preds = %2
  %23 = load i32, ptr %4, align 4, !tbaa !14
  %24 = icmp sge i32 %23, 0
  br i1 %24, label %25, label %33

25:                                               ; preds = %22
  %26 = load i32, ptr %4, align 4, !tbaa !14
  %27 = sub nsw i32 %26, 1
  %28 = load i32, ptr %3, align 4, !tbaa !14
  %29 = sub nsw i32 %27, %28
  %30 = load i32, ptr %4, align 4, !tbaa !14
  %31 = sdiv i32 %29, %30
  %32 = sub nsw i32 0, %31
  br label %42

33:                                               ; preds = %22
  %34 = load i32, ptr %4, align 4, !tbaa !14
  %35 = sub nsw i32 0, %34
  %36 = sub nsw i32 %35, 1
  %37 = load i32, ptr %3, align 4, !tbaa !14
  %38 = sub nsw i32 %36, %37
  %39 = load i32, ptr %4, align 4, !tbaa !14
  %40 = sub nsw i32 0, %39
  %41 = sdiv i32 %38, %40
  br label %42

42:                                               ; preds = %33, %25
  %43 = phi i32 [ %32, %25 ], [ %41, %33 ]
  br label %44

44:                                               ; preds = %42, %20
  %45 = phi i32 [ %21, %20 ], [ %43, %42 ]
  ret i32 %45
}

; Function Attrs: mustprogress nounwind uwtable
define noundef i32 @_ZN7Imf_3_410numSamplesEiii(i32 noundef %0, i32 noundef %1, i32 noundef %2) #5 {
  %4 = alloca i32, align 4
  %5 = alloca i32, align 4
  %6 = alloca i32, align 4
  %7 = alloca i32, align 4
  %8 = alloca i32, align 4
  store i32 %0, ptr %4, align 4, !tbaa !14
  store i32 %1, ptr %5, align 4, !tbaa !14
  store i32 %2, ptr %6, align 4, !tbaa !14
  call void @llvm.lifetime.start.p0(i64 4, ptr %7) #3
  %9 = load i32, ptr %5, align 4, !tbaa !14
  %10 = load i32, ptr %4, align 4, !tbaa !14
  %11 = call noundef i32 @_ZN9Imath_3_24divpEii(i32 noundef %9, i32 noundef %10) #3
  store i32 %11, ptr %7, align 4, !tbaa !14
  call void @llvm.lifetime.start.p0(i64 4, ptr %8) #3
  %12 = load i32, ptr %6, align 4, !tbaa !14
  %13 = load i32, ptr %4, align 4, !tbaa !14
  %14 = call noundef i32 @_ZN9Imath_3_24divpEii(i32 noundef %12, i32 noundef %13) #3
  store i32 %14, ptr %8, align 4, !tbaa !14
  %15 = load i32, ptr %8, align 4, !tbaa !14
  %16 = load i32, ptr %7, align 4, !tbaa !14
  %17 = sub nsw i32 %15, %16
  %18 = load i32, ptr %7, align 4, !tbaa !14
  %19 = load i32, ptr %4, align 4, !tbaa !14
  %20 = mul nsw i32 %18, %19
  %21 = load i32, ptr %5, align 4, !tbaa !14
  %22 = icmp slt i32 %20, %21
  %23 = select i1 %22, i32 0, i32 1
  %24 = add nsw i32 %17, %23
  call void @llvm.lifetime.end.p0(i64 4, ptr %8) #3
  call void @llvm.lifetime.end.p0(i64 4, ptr %7) #3
  ret i32 %24
}