; Function Attrs: mustprogress nofree norecurse nosync nounwind willreturn memory(none) uwtable
define noundef i32 @_ZN7Imf_3_410numSamplesEiii(i32 noundef %0, i32 noundef %1, i32 noundef %2) local_unnamed_addr #7 {
  %4 = icmp sgt i32 %1, -1
  %5 = icmp sgt i32 %0, -1
  br i1 %4, label %6, label %13

6:                                                ; preds = %3
  br i1 %5, label %7, label %9

7:                                                ; preds = %6
  %8 = udiv i32 %1, %0
  br label %_ZN9Imath_3_24divpEii.exit

9:                                                ; preds = %6
  %10 = sub nsw i32 0, %0
  %11 = udiv i32 %1, %10
  %12 = sub nsw i32 0, %11
  br label %_ZN9Imath_3_24divpEii.exit

13:                                               ; preds = %3
  br i1 %5, label %14, label %19

14:                                               ; preds = %13
  %15 = xor i32 %1, -1
  %16 = add nuw i32 %0, %15
  %17 = udiv i32 %16, %0
  %18 = sub nsw i32 0, %17
  br label %_ZN9Imath_3_24divpEii.exit

19:                                               ; preds = %13
  %20 = sub nsw i32 0, %0
  %21 = xor i32 %0, -1
  %22 = sub nsw i32 %21, %1
  %23 = udiv i32 %22, %20
  br label %_ZN9Imath_3_24divpEii.exit

_ZN9Imath_3_24divpEii.exit:                       ; preds = %7, %9, %14, %19
  %24 = phi i32 [ %8, %7 ], [ %12, %9 ], [ %18, %14 ], [ %23, %19 ]
  %25 = icmp sgt i32 %2, -1
  br i1 %25, label %26, label %33

26:                                               ; preds = %_ZN9Imath_3_24divpEii.exit
  br i1 %5, label %27, label %29

27:                                               ; preds = %26
  %28 = udiv i32 %2, %0
  br label %_ZN9Imath_3_24divpEii.exit9

29:                                               ; preds = %26
  %30 = sub nsw i32 0, %0
  %31 = udiv i32 %2, %30
  %32 = sub nsw i32 0, %31
  br label %_ZN9Imath_3_24divpEii.exit9

33:                                               ; preds = %_ZN9Imath_3_24divpEii.exit
  br i1 %5, label %34, label %39

34:                                               ; preds = %33
  %35 = xor i32 %2, -1
  %36 = add nuw i32 %0, %35
  %37 = udiv i32 %36, %0
  %38 = sub nsw i32 0, %37
  br label %_ZN9Imath_3_24divpEii.exit9

39:                                               ; preds = %33
  %40 = sub nsw i32 0, %0
  %41 = xor i32 %0, -1
  %42 = sub nsw i32 %41, %2
  %43 = udiv i32 %42, %40
  br label %_ZN9Imath_3_24divpEii.exit9

_ZN9Imath_3_24divpEii.exit9:                      ; preds = %27, %29, %34, %39
  %44 = phi i32 [ %28, %27 ], [ %32, %29 ], [ %38, %34 ], [ %43, %39 ]
  %45 = mul nsw i32 %24, %0
  %46 = icmp sge i32 %45, %1
  %47 = zext i1 %46 to i32
  %48 = sub i32 %47, %24
  %49 = add i32 %48, %44
  ret i32 %49
}